target datalayout = "e-m:e-p270:32:32-p271:32:32-p272:64:64-i64:64-i128:128-f80:128-n8:16:32:64-S128"
target triple = "x86_64-pc-linux-gnu"

%struct.stbi__zhuffman = type { [512 x i16], [16 x i16], [17 x i32], [16 x i16], [288 x i8], [288 x i16] }

@_ZL22stbi__g_failure_reason = internal global ptr null, align 8
@.str.79 = private unnamed_addr constant [10 x i8] c"bad sizes\00", align 1
@.str.80 = private unnamed_addr constant [16 x i8] c"bad codelengths\00", align 1

; Function Attrs: inlinehint mustprogress nounwind uwtable
define internal noundef i32 @_ZL18stbi__bitreverse16i(i32 noundef %0) #12 {
  %2 = alloca i32, align 4
  store i32 %0, ptr %2, align 4, !tbaa !11
  %3 = load i32, ptr %2, align 4, !tbaa !11
  %4 = and i32 %3, 43690
  %5 = ashr i32 %4, 1
  %6 = load i32, ptr %2, align 4, !tbaa !11
  %7 = and i32 %6, 21845
  %8 = shl i32 %7, 1
  %9 = or i32 %5, %8
  store i32 %9, ptr %2, align 4, !tbaa !11
  %10 = load i32, ptr %2, align 4, !tbaa !11
  %11 = and i32 %10, 52428
  %12 = ashr i32 %11, 2
  %13 = load i32, ptr %2, align 4, !tbaa !11
  %14 = and i32 %13, 13107
  %15 = shl i32 %14, 2
  %16 = or i32 %12, %15
  store i32 %16, ptr %2, align 4, !tbaa !11
  %17 = load i32, ptr %2, align 4, !tbaa !11
  %18 = and i32 %17, 61680
  %19 = ashr i32 %18, 4
  %20 = load i32, ptr %2, align 4, !tbaa !11
  %21 = and i32 %20, 3855
  %22 = shl i32 %21, 4
  %23 = or i32 %19, %22
  store i32 %23, ptr %2, align 4, !tbaa !11
  %24 = load i32, ptr %2, align 4, !tbaa !11
  %25 = and i32 %24, 65280
  %26 = ashr i32 %25, 8
  %27 = load i32, ptr %2, align 4, !tbaa !11
  %28 = and i32 %27, 255
  %29 = shl i32 %28, 8
  %30 = or i32 %26, %29
  store i32 %30, ptr %2, align 4, !tbaa !11
  %31 = load i32, ptr %2, align 4, !tbaa !11
  ret i32 %31
}

; Function Attrs: inlinehint mustprogress uwtable
define internal noundef i32 @_ZL17stbi__bit_reverseii(i32 noundef %0, i32 noundef %1) #7 {
  %3 = alloca i32, align 4
  %4 = alloca i32, align 4
  store i32 %0, ptr %3, align 4, !tbaa !11
  store i32 %1, ptr %4, align 4, !tbaa !11
  %5 = load i32, ptr %3, align 4, !tbaa !11
  %6 = call noundef i32 @_ZL18stbi__bitreverse16i(i32 noundef %5)
  %7 = load i32, ptr %4, align 4, !tbaa !11
  %8 = sub nsw i32 16, %7
  %9 = ashr i32 %6, %8
  ret i32 %9
}

; Function Attrs: mustprogress nounwind uwtable
define internal noundef i32 @_ZL9stbi__errPKc(ptr noundef %0) #0 {
  %2 = alloca ptr, align 8
  store ptr %0, ptr %2, align 8, !tbaa !5
  %3 = load ptr, ptr %2, align 8, !tbaa !5
  store ptr %3, ptr @_ZL22stbi__g_failure_reason, align 8, !tbaa !5
  ret i32 0
}

; Function Attrs: mustprogress uwtable
define internal noundef i32 @_ZL20stbi__zbuild_huffmanP14stbi__zhuffmanPKhi(ptr noundef %0, ptr noundef %1, i32 noundef %2) #2 {
  %4 = alloca i32, align 4
  %5 = alloca ptr, align 8
  %6 = alloca ptr, align 8
  %7 = alloca i32, align 4
  %8 = alloca i32, align 4
  %9 = alloca i32, align 4
  %10 = alloca i32, align 4
  %11 = alloca [16 x i32], align 16
  %12 = alloca [17 x i32], align 16
  %13 = alloca i32, align 4
  %14 = alloca i32, align 4
  %15 = alloca i32, align 4
  %16 = alloca i16, align 2
  %17 = alloca i32, align 4
  store ptr %0, ptr %5, align 8, !tbaa !10
  store ptr %1, ptr %6, align 8, !tbaa !5
  store i32 %2, ptr %7, align 4, !tbaa !11
  call void @llvm.lifetime.start.p0(i64 4, ptr %8) #22
  call void @llvm.lifetime.start.p0(i64 4, ptr %9) #22
  store i32 0, ptr %9, align 4, !tbaa !11
  call void @llvm.lifetime.start.p0(i64 4, ptr %10) #22
  call void @llvm.lifetime.start.p0(i64 64, ptr %11) #22
  call void @llvm.lifetime.start.p0(i64 68, ptr %12) #22
  %18 = getelementptr inbounds [17 x i32], ptr %12, i64 0, i64 0
  call void @llvm.memset.p0.i64(ptr align 16 %18, i8 0, i64 68, i1 false)
  %19 = load ptr, ptr %5, align 8, !tbaa !10
  %20 = getelementptr inbounds nuw %struct.stbi__zhuffman, ptr %19, i32 0, i32 0
  %21 = getelementptr inbounds [512 x i16], ptr %20, i64 0, i64 0
  call void @llvm.memset.p0.i64(ptr align 4 %21, i8 0, i64 1024, i1 false)
  store i32 0, ptr %8, align 4, !tbaa !11
  br label %22

22:                                               ; preds = %36, %3
  %23 = load i32, ptr %8, align 4, !tbaa !11
  %24 = load i32, ptr %7, align 4, !tbaa !11
  %25 = icmp slt i32 %23, %24
  br i1 %25, label %26, label %39

26:                                               ; preds = %22
  %27 = load ptr, ptr %6, align 8, !tbaa !5
  %28 = load i32, ptr %8, align 4, !tbaa !11
  %29 = sext i32 %28 to i64
  %30 = getelementptr inbounds i8, ptr %27, i64 %29
  %31 = load i8, ptr %30, align 1, !tbaa !31
  %32 = zext i8 %31 to i64
  %33 = getelementptr inbounds nuw [17 x i32], ptr %12, i64 0, i64 %32
  %34 = load i32, ptr %33, align 4, !tbaa !11
  %35 = add nsw i32 %34, 1
  store i32 %35, ptr %33, align 4, !tbaa !11
  br label %36

36:                                               ; preds = %26
  %37 = load i32, ptr %8, align 4, !tbaa !11
  %38 = add nsw i32 %37, 1
  store i32 %38, ptr %8, align 4, !tbaa !11
  br label %22, !llvm.loop !316

39:                                               ; preds = %22
  %40 = getelementptr inbounds [17 x i32], ptr %12, i64 0, i64 0
  store i32 0, ptr %40, align 16, !tbaa !11
  store i32 1, ptr %8, align 4, !tbaa !11
  br label %41

41:                                               ; preds = %55, %39
  %42 = load i32, ptr %8, align 4, !tbaa !11
  %43 = icmp slt i32 %42, 16
  br i1 %43, label %44, label %58

44:                                               ; preds = %41
  %45 = load i32, ptr %8, align 4, !tbaa !11
  %46 = sext i32 %45 to i64
  %47 = getelementptr inbounds [17 x i32], ptr %12, i64 0, i64 %46
  %48 = load i32, ptr %47, align 4, !tbaa !11
  %49 = load i32, ptr %8, align 4, !tbaa !11
  %50 = shl i32 1, %49
  %51 = icmp sgt i32 %48, %50
  br i1 %51, label %52, label %54

52:                                               ; preds = %44
  %53 = call noundef i32 @_ZL9stbi__errPKc(ptr noundef @.str.79)
  store i32 %53, ptr %4, align 4
  store i32 1, ptr %13, align 4
  br label %214

54:                                               ; preds = %44
  br label %55

55:                                               ; preds = %54
  %56 = load i32, ptr %8, align 4, !tbaa !11
  %57 = add nsw i32 %56, 1
  store i32 %57, ptr %8, align 4, !tbaa !11
  br label %41, !llvm.loop !317

58:                                               ; preds = %41
  store i32 0, ptr %10, align 4, !tbaa !11
  store i32 1, ptr %8, align 4, !tbaa !11
  br label %59

59:                                               ; preds = %119, %58
  %60 = load i32, ptr %8, align 4, !tbaa !11
  %61 = icmp slt i32 %60, 16
  br i1 %61, label %62, label %122

62:                                               ; preds = %59
  %63 = load i32, ptr %10, align 4, !tbaa !11
  %64 = load i32, ptr %8, align 4, !tbaa !11
  %65 = sext i32 %64 to i64
  %66 = getelementptr inbounds [16 x i32], ptr %11, i64 0, i64 %65
  store i32 %63, ptr %66, align 4, !tbaa !11
  %67 = load i32, ptr %10, align 4, !tbaa !11
  %68 = trunc i32 %67 to i16
  %69 = load ptr, ptr %5, align 8, !tbaa !10
  %70 = getelementptr inbounds nuw %struct.stbi__zhuffman, ptr %69, i32 0, i32 1
  %71 = load i32, ptr %8, align 4, !tbaa !11
  %72 = sext i32 %71 to i64
  %73 = getelementptr inbounds [16 x i16], ptr %70, i64 0, i64 %72
  store i16 %68, ptr %73, align 2, !tbaa !36
  %74 = load i32, ptr %9, align 4, !tbaa !11
  %75 = trunc i32 %74 to i16
  %76 = load ptr, ptr %5, align 8, !tbaa !10
  %77 = getelementptr inbounds nuw %struct.stbi__zhuffman, ptr %76, i32 0, i32 3
  %78 = load i32, ptr %8, align 4, !tbaa !11
  %79 = sext i32 %78 to i64
  %80 = getelementptr inbounds [16 x i16], ptr %77, i64 0, i64 %79
  store i16 %75, ptr %80, align 2, !tbaa !36
  %81 = load i32, ptr %10, align 4, !tbaa !11
  %82 = load i32, ptr %8, align 4, !tbaa !11
  %83 = sext i32 %82 to i64
  %84 = getelementptr inbounds [17 x i32], ptr %12, i64 0, i64 %83
  %85 = load i32, ptr %84, align 4, !tbaa !11
  %86 = add nsw i32 %81, %85
  store i32 %86, ptr %10, align 4, !tbaa !11
  %87 = load i32, ptr %8, align 4, !tbaa !11
  %88 = sext i32 %87 to i64
  %89 = getelementptr inbounds [17 x i32], ptr %12, i64 0, i64 %88
  %90 = load i32, ptr %89, align 4, !tbaa !11
  %91 = icmp ne i32 %90, 0
  br i1 %91, label %92, label %101

92:                                               ; preds = %62
  %93 = load i32, ptr %10, align 4, !tbaa !11
  %94 = sub nsw i32 %93, 1
  %95 = load i32, ptr %8, align 4, !tbaa !11
  %96 = shl i32 1, %95
  %97 = icmp sge i32 %94, %96
  br i1 %97, label %98, label %100

98:                                               ; preds = %92
  %99 = call noundef i32 @_ZL9stbi__errPKc(ptr noundef @.str.80)
  store i32 %99, ptr %4, align 4
  store i32 1, ptr %13, align 4
  br label %214

100:                                              ; preds = %92
  br label %101

101:                                              ; preds = %100, %62
  %102 = load i32, ptr %10, align 4, !tbaa !11
  %103 = load i32, ptr %8, align 4, !tbaa !11
  %104 = sub nsw i32 16, %103
  %105 = shl i32 %102, %104
  %106 = load ptr, ptr %5, align 8, !tbaa !10
  %107 = getelementptr inbounds nuw %struct.stbi__zhuffman, ptr %106, i32 0, i32 2
  %108 = load i32, ptr %8, align 4, !tbaa !11
  %109 = sext i32 %108 to i64
  %110 = getelementptr inbounds [17 x i32], ptr %107, i64 0, i64 %109
  store i32 %105, ptr %110, align 4, !tbaa !11
  %111 = load i32, ptr %10, align 4, !tbaa !11
  %112 = shl i32 %111, 1
  store i32 %112, ptr %10, align 4, !tbaa !11
  %113 = load i32, ptr %8, align 4, !tbaa !11
  %114 = sext i32 %113 to i64
  %115 = getelementptr inbounds [17 x i32], ptr %12, i64 0, i64 %114
  %116 = load i32, ptr %115, align 4, !tbaa !11
  %117 = load i32, ptr %9, align 4, !tbaa !11
  %118 = add nsw i32 %117, %116
  store i32 %118, ptr %9, align 4, !tbaa !11
  br label %119

119:                                              ; preds = %101
  %120 = load i32, ptr %8, align 4, !tbaa !11
  %121 = add nsw i32 %120, 1
  store i32 %121, ptr %8, align 4, !tbaa !11
  br label %59, !llvm.loop !318

122:                                              ; preds = %59
  %123 = load ptr, ptr %5, align 8, !tbaa !10
  %124 = getelementptr inbounds nuw %struct.stbi__zhuffman, ptr %123, i32 0, i32 2
  %125 = getelementptr inbounds [17 x i32], ptr %124, i64 0, i64 16
  store i32 65536, ptr %125, align 4, !tbaa !11
  store i32 0, ptr %8, align 4, !tbaa !11
  br label %126

126:                                              ; preds = %210, %122
  %127 = load i32, ptr %8, align 4, !tbaa !11
  %128 = load i32, ptr %7, align 4, !tbaa !11
  %129 = icmp slt i32 %127, %128
  br i1 %129, label %130, label %213

130:                                              ; preds = %126
  call void @llvm.lifetime.start.p0(i64 4, ptr %14) #22
  %131 = load ptr, ptr %6, align 8, !tbaa !5
  %132 = load i32, ptr %8, align 4, !tbaa !11
  %133 = sext i32 %132 to i64
  %134 = getelementptr inbounds i8, ptr %131, i64 %133
  %135 = load i8, ptr %134, align 1, !tbaa !31
  %136 = zext i8 %135 to i32
  store i32 %136, ptr %14, align 4, !tbaa !11
  %137 = load i32, ptr %14, align 4, !tbaa !11
  %138 = icmp ne i32 %137, 0
  br i1 %138, label %139, label %209

139:                                              ; preds = %130
  call void @llvm.lifetime.start.p0(i64 4, ptr %15) #22
  %140 = load i32, ptr %14, align 4, !tbaa !11
  %141 = sext i32 %140 to i64
  %142 = getelementptr inbounds [16 x i32], ptr %11, i64 0, i64 %141
  %143 = load i32, ptr %142, align 4, !tbaa !11
  %144 = load ptr, ptr %5, align 8, !tbaa !10
  %145 = getelementptr inbounds nuw %struct.stbi__zhuffman, ptr %144, i32 0, i32 1
  %146 = load i32, ptr %14, align 4, !tbaa !11
  %147 = sext i32 %146 to i64
  %148 = getelementptr inbounds [16 x i16], ptr %145, i64 0, i64 %147
  %149 = load i16, ptr %148, align 2, !tbaa !36
  %150 = zext i16 %149 to i32
  %151 = sub nsw i32 %143, %150
  %152 = load ptr, ptr %5, align 8, !tbaa !10
  %153 = getelementptr inbounds nuw %struct.stbi__zhuffman, ptr %152, i32 0, i32 3
  %154 = load i32, ptr %14, align 4, !tbaa !11
  %155 = sext i32 %154 to i64
  %156 = getelementptr inbounds [16 x i16], ptr %153, i64 0, i64 %155
  %157 = load i16, ptr %156, align 2, !tbaa !36
  %158 = zext i16 %157 to i32
  %159 = add nsw i32 %151, %158
  store i32 %159, ptr %15, align 4, !tbaa !11
  call void @llvm.lifetime.start.p0(i64 2, ptr %16) #22
  %160 = load i32, ptr %14, align 4, !tbaa !11
  %161 = shl i32 %160, 9
  %162 = load i32, ptr %8, align 4, !tbaa !11
  %163 = or i32 %161, %162
  %164 = trunc i32 %163 to i16
  store i16 %164, ptr %16, align 2, !tbaa !36
  %165 = load i32, ptr %14, align 4, !tbaa !11
  %166 = trunc i32 %165 to i8
  %167 = load ptr, ptr %5, align 8, !tbaa !10
  %168 = getelementptr inbounds nuw %struct.stbi__zhuffman, ptr %167, i32 0, i32 4
  %169 = load i32, ptr %15, align 4, !tbaa !11
  %170 = sext i32 %169 to i64
  %171 = getelementptr inbounds [288 x i8], ptr %168, i64 0, i64 %170
  store i8 %166, ptr %171, align 1, !tbaa !31
  %172 = load i32, ptr %8, align 4, !tbaa !11
  %173 = trunc i32 %172 to i16
  %174 = load ptr, ptr %5, align 8, !tbaa !10
  %175 = getelementptr inbounds nuw %struct.stbi__zhuffman, ptr %174, i32 0, i32 5
  %176 = load i32, ptr %15, align 4, !tbaa !11
  %177 = sext i32 %176 to i64
  %178 = getelementptr inbounds [288 x i16], ptr %175, i64 0, i64 %177
  store i16 %173, ptr %178, align 2, !tbaa !36
  %179 = load i32, ptr %14, align 4, !tbaa !11
  %180 = icmp sle i32 %179, 9
  br i1 %180, label %181, label %203

181:                                              ; preds = %139
  call void @llvm.lifetime.start.p0(i64 4, ptr %17) #22
  %182 = load i32, ptr %14, align 4, !tbaa !11
  %183 = sext i32 %182 to i64
  %184 = getelementptr inbounds [16 x i32], ptr %11, i64 0, i64 %183
  %185 = load i32, ptr %184, align 4, !tbaa !11
  %186 = load i32, ptr %14, align 4, !tbaa !11
  %187 = call noundef i32 @_ZL17stbi__bit_reverseii(i32 noundef %185, i32 noundef %186)
  store i32 %187, ptr %17, align 4, !tbaa !11
  br label %188

188:                                              ; preds = %191, %181
  %189 = load i32, ptr %17, align 4, !tbaa !11
  %190 = icmp slt i32 %189, 512
  br i1 %190, label %191, label %202

191:                                              ; preds = %188
  %192 = load i16, ptr %16, align 2, !tbaa !36
  %193 = load ptr, ptr %5, align 8, !tbaa !10
  %194 = getelementptr inbounds nuw %struct.stbi__zhuffman, ptr %193, i32 0, i32 0
  %195 = load i32, ptr %17, align 4, !tbaa !11
  %196 = sext i32 %195 to i64
  %197 = getelementptr inbounds [512 x i16], ptr %194, i64 0, i64 %196
  store i16 %192, ptr %197, align 2, !tbaa !36
  %198 = load i32, ptr %14, align 4, !tbaa !11
  %199 = shl i32 1, %198
  %200 = load i32, ptr %17, align 4, !tbaa !11
  %201 = add nsw i32 %200, %199
  store i32 %201, ptr %17, align 4, !tbaa !11
  br label %188, !llvm.loop !319

202:                                              ; preds = %188
  call void @llvm.lifetime.end.p0(i64 4, ptr %17) #22
  br label %203

203:                                              ; preds = %202, %139
  %204 = load i32, ptr %14, align 4, !tbaa !11
  %205 = sext i32 %204 to i64
  %206 = getelementptr inbounds [16 x i32], ptr %11, i64 0, i64 %205
  %207 = load i32, ptr %206, align 4, !tbaa !11
  %208 = add nsw i32 %207, 1
  store i32 %208, ptr %206, align 4, !tbaa !11
  call void @llvm.lifetime.end.p0(i64 2, ptr %16) #22
  call void @llvm.lifetime.end.p0(i64 4, ptr %15) #22
  br label %209

209:                                              ; preds = %203, %130
  call void @llvm.lifetime.end.p0(i64 4, ptr %14) #22
  br label %210

210:                                              ; preds = %209
  %211 = load i32, ptr %8, align 4, !tbaa !11
  %212 = add nsw i32 %211, 1
  store i32 %212, ptr %8, align 4, !tbaa !11
  br label %126, !llvm.loop !320

213:                                              ; preds = %126
  store i32 1, ptr %4, align 4
  store i32 1, ptr %13, align 4
  br label %214

214:                                              ; preds = %213, %98, %52
  call void @llvm.lifetime.end.p0(i64 68, ptr %12) #22
  call void @llvm.lifetime.end.p0(i64 64, ptr %11) #22
  call void @llvm.lifetime.end.p0(i64 4, ptr %10) #22
  call void @llvm.lifetime.end.p0(i64 4, ptr %9) #22
  call void @llvm.lifetime.end.p0(i64 4, ptr %8) #22
  %215 = load i32, ptr %4, align 4
  ret i32 %215
}