; Function Attrs: mustprogress nofree norecurse nosync nounwind memory(write, argmem: readwrite, inaccessiblemem: none) uwtable
define internal fastcc noundef range(i32 0, 2) i32 @_ZL20stbi__zbuild_huffmanP14stbi__zhuffmanPKhi(ptr noundef nonnull captures(none) initializes((0, 1024)) %0, ptr noundef readonly captures(none) %1, i32 noundef %2) unnamed_addr #24 {
  %4 = alloca [16 x i32], align 16
  %5 = alloca [17 x i32], align 16
  call void @llvm.lifetime.start.p0(i64 64, ptr nonnull %4) #35
  call void @llvm.lifetime.start.p0(i64 68, ptr nonnull %5) #35
  call void @llvm.memset.p0.i64(ptr noundef nonnull align 16 dereferenceable(68) %5, i8 0, i64 68, i1 false)
  tail call void @llvm.memset.p0.i64(ptr noundef nonnull align 4 dereferenceable(1024) %0, i8 0, i64 1024, i1 false)
  %6 = icmp sgt i32 %2, 0
  br i1 %6, label %.lr.ph.preheader, label %._crit_edge.preheader

.lr.ph.preheader:                                 ; preds = %3
  %wide.trip.count = zext nneg i32 %2 to i64
  br label %.lr.ph

.lr.ph:                                           ; preds = %.lr.ph.preheader, %.lr.ph
  %indvars.iv = phi i64 [ 0, %.lr.ph.preheader ], [ %indvars.iv.next, %.lr.ph ]
  %7 = getelementptr inbounds nuw i8, ptr %1, i64 %indvars.iv
  %8 = load i8, ptr %7, align 1, !tbaa !23
  %9 = zext i8 %8 to i64
  %10 = getelementptr inbounds nuw [17 x i32], ptr %5, i64 0, i64 %9
  %11 = load i32, ptr %10, align 4, !tbaa !10
  %12 = add nsw i32 %11, 1
  store i32 %12, ptr %10, align 4, !tbaa !10
  %indvars.iv.next = add nuw nsw i64 %indvars.iv, 1
  %exitcond.not = icmp eq i64 %indvars.iv.next, %wide.trip.count
  br i1 %exitcond.not, label %._crit_edge.preheader, label %.lr.ph, !llvm.loop !306

._crit_edge.preheader:                            ; preds = %.lr.ph, %3
  br label %._crit_edge

13:                                               ; preds = %._crit_edge
  %indvars.iv.next84 = add nuw nsw i64 %indvars.iv83, 1
  %exitcond86.not = icmp eq i64 %indvars.iv.next84, 16
  br i1 %exitcond86.not, label %.preheader, label %._crit_edge, !llvm.loop !307

.preheader:                                       ; preds = %13
  %14 = getelementptr inbounds nuw i8, ptr %0, i64 1024
  %15 = getelementptr inbounds nuw i8, ptr %0, i64 1124
  %16 = getelementptr inbounds nuw i8, ptr %0, i64 1056
  br label %22

._crit_edge:                                      ; preds = %._crit_edge.preheader, %13
  %indvars.iv83 = phi i64 [ %indvars.iv.next84, %13 ], [ 1, %._crit_edge.preheader ]
  %17 = getelementptr inbounds nuw [17 x i32], ptr %5, i64 0, i64 %indvars.iv83
  %18 = load i32, ptr %17, align 4, !tbaa !10
  %19 = trunc nuw nsw i64 %indvars.iv83 to i32
  %20 = shl nuw nsw i32 1, %19
  %21 = icmp sgt i32 %18, %20
  br i1 %21, label %.loopexit70.sink.split, label %13

22:                                               ; preds = %.preheader, %33
  %indvars.iv87 = phi i64 [ 1, %.preheader ], [ %indvars.iv.next88, %33 ]
  %.06474 = phi i32 [ 0, %.preheader ], [ %39, %33 ]
  %.06573 = phi i32 [ 0, %.preheader ], [ %38, %33 ]
  %23 = getelementptr inbounds nuw [16 x i32], ptr %4, i64 0, i64 %indvars.iv87
  store i32 %.06573, ptr %23, align 4, !tbaa !10
  %24 = trunc i32 %.06573 to i16
  %25 = getelementptr inbounds nuw [16 x i16], ptr %14, i64 0, i64 %indvars.iv87
  store i16 %24, ptr %25, align 2, !tbaa !28
  %26 = trunc i32 %.06474 to i16
  %27 = getelementptr inbounds nuw [16 x i16], ptr %15, i64 0, i64 %indvars.iv87
  store i16 %26, ptr %27, align 2, !tbaa !28
  %28 = getelementptr inbounds nuw [17 x i32], ptr %5, i64 0, i64 %indvars.iv87
  %29 = load i32, ptr %28, align 4, !tbaa !10
  %30 = add nsw i32 %29, %.06573
  %.not68 = icmp ne i32 %29, 0
  %31 = trunc nuw nsw i64 %indvars.iv87 to i32
  %32 = shl nuw nsw i32 1, %31
  %.not69.not = icmp sgt i32 %30, %32
  %or.cond = select i1 %.not68, i1 %.not69.not, i1 false
  br i1 %or.cond, label %.loopexit70.sink.split, label %33

33:                                               ; preds = %22
  %34 = trunc i64 %indvars.iv87 to i32
  %35 = sub i32 16, %34
  %36 = shl i32 %30, %35
  %37 = getelementptr inbounds nuw [17 x i32], ptr %16, i64 0, i64 %indvars.iv87
  store i32 %36, ptr %37, align 4, !tbaa !10
  %38 = shl i32 %30, 1
  %39 = add nsw i32 %29, %.06474
  %indvars.iv.next88 = add nuw nsw i64 %indvars.iv87, 1
  %exitcond90.not = icmp eq i64 %indvars.iv.next88, 16
  br i1 %exitcond90.not, label %40, label %22, !llvm.loop !308

40:                                               ; preds = %33
  %41 = getelementptr inbounds nuw i8, ptr %0, i64 1120
  store i32 65536, ptr %41, align 4, !tbaa !10
  br i1 %6, label %.lr.ph81, label %.loopexit70

.lr.ph81:                                         ; preds = %40
  %42 = getelementptr inbounds nuw i8, ptr %0, i64 1156
  %43 = getelementptr inbounds nuw i8, ptr %0, i64 1444
  %wide.trip.count97 = zext nneg i32 %2 to i64
  br label %44

44:                                               ; preds = %.lr.ph81, %81
  %indvars.iv94 = phi i64 [ 0, %.lr.ph81 ], [ %indvars.iv.next95, %81 ]
  %45 = getelementptr inbounds nuw i8, ptr %1, i64 %indvars.iv94
  %46 = load i8, ptr %45, align 1, !tbaa !23
  %47 = zext i8 %46 to i32
  %.not = icmp eq i8 %46, 0
  br i1 %.not, label %81, label %48

48:                                               ; preds = %44
  %49 = zext i8 %46 to i64
  %50 = getelementptr inbounds nuw [16 x i32], ptr %4, i64 0, i64 %49
  %51 = load i32, ptr %50, align 4, !tbaa !10
  %52 = getelementptr inbounds nuw [16 x i16], ptr %14, i64 0, i64 %49
  %53 = load i16, ptr %52, align 2, !tbaa !28
  %54 = zext i16 %53 to i32
  %55 = sub i32 %51, %54
  %56 = getelementptr inbounds nuw [16 x i16], ptr %15, i64 0, i64 %49
  %57 = load i16, ptr %56, align 2, !tbaa !28
  %58 = zext i16 %57 to i32
  %59 = add nsw i32 %55, %58
  %60 = shl nuw nsw i32 %47, 9
  %61 = trunc nuw nsw i64 %indvars.iv94 to i32
  %62 = or i32 %60, %61
  %63 = trunc i32 %62 to i16
  %64 = sext i32 %59 to i64
  %65 = getelementptr inbounds [288 x i8], ptr %42, i64 0, i64 %64
  store i8 %46, ptr %65, align 1, !tbaa !23
  %66 = trunc i64 %indvars.iv94 to i16
  %67 = getelementptr inbounds [288 x i16], ptr %43, i64 0, i64 %64
  store i16 %66, ptr %67, align 2, !tbaa !28
  %68 = icmp ult i8 %46, 10
  br i1 %68, label %69, label %.loopexit

69:                                               ; preds = %48
  %trunc.i.i = trunc i32 %51 to i16
  %rev.i.i = tail call i16 @llvm.bitreverse.i16(i16 %trunc.i.i)
  %70 = zext i16 %rev.i.i to i32
  %71 = sub nuw nsw i32 16, %47
  %72 = lshr i32 %70, %71
  %73 = icmp samesign ult i32 %72, 512
  br i1 %73, label %.lr.ph78, label %.loopexit

.lr.ph78:                                         ; preds = %69
  %74 = shl nuw nsw i32 1, %47
  %75 = zext nneg i32 %72 to i64
  %76 = zext nneg i32 %74 to i64
  br label %77

77:                                               ; preds = %.lr.ph78, %77
  %indvars.iv91 = phi i64 [ %75, %.lr.ph78 ], [ %indvars.iv.next92, %77 ]
  %78 = getelementptr inbounds nuw [512 x i16], ptr %0, i64 0, i64 %indvars.iv91
  store i16 %63, ptr %78, align 2, !tbaa !28
  %indvars.iv.next92 = add nuw nsw i64 %indvars.iv91, %76
  %79 = icmp samesign ult i64 %indvars.iv.next92, 512
  br i1 %79, label %77, label %.loopexit, !llvm.loop !309

.loopexit:                                        ; preds = %77, %69, %48
  %80 = add nsw i32 %51, 1
  store i32 %80, ptr %50, align 4, !tbaa !10
  br label %81

81:                                               ; preds = %.loopexit, %44
  %indvars.iv.next95 = add nuw nsw i64 %indvars.iv94, 1
  %exitcond98.not = icmp eq i64 %indvars.iv.next95, %wide.trip.count97
  br i1 %exitcond98.not, label %.loopexit70, label %44, !llvm.loop !310

.loopexit70.sink.split:                           ; preds = %._crit_edge, %22
  %.str.80.sink = phi ptr [ @.str.80, %22 ], [ @.str.79, %._crit_edge ]
  store ptr %.str.80.sink, ptr @_ZL22stbi__g_failure_reason, align 8, !tbaa !5
  br label %.loopexit70

.loopexit70:                                      ; preds = %81, %.loopexit70.sink.split, %40
  %.062 = phi i32 [ 1, %40 ], [ 0, %.loopexit70.sink.split ], [ 1, %81 ]
  call void @llvm.lifetime.end.p0(i64 68, ptr nonnull %5) #35
  call void @llvm.lifetime.end.p0(i64 64, ptr nonnull %4) #35
  ret i32 %.062
}